(i__main__
FeatureConverter
p0
(dp1
S'ngram_vec_scaffold'
p2
(lp3
Vcode
p4
aVprimary human
p5
aVes derived
p6
aVactivated
p7
aVbarr virus
p8
aVskin
p9
aVspike
p10
aVknown storage
p11
aVwhole blood
p12
aVnot collected
p13
aVepithelial cells
p14
aVstably
p15
aVvs
p16
aVshort name
p17
aVpassage
p18
aVmyelogenous leukemia
p19
aVblood derived
p20
aVstable
p21
aVrna from
p22
aVcrest
p23
aVhepg2
p24
aVg1
p25
aVderived from
p26
aVcolon carcinoma
p27
aVepstein barr
p28
aV01r
p29
aVtranscriptome
p30
aVdisease state
p31
aVspecific
p32
aVsalmonella
p33
aVcondition
p34
aV, non
p35
aVdifferentiated
p36
aV2.2)
p37
aVgender
p38
aVcrosslinking
p39
aVhuman lung
p40
aVtissue
p41
aVsurgical
p42
aVt0
p43
aVmm
p44
aVrace
p45
aVepstein
p46
aVml
p47
aVsmall
p48
aV(atcc
p49
aV293
p50
aVcell lines
p51
aVbd
p52
aVovarian cancer
p53
aV10a
p54
aVstudy disease
p55
aVprogenitors
p56
aVbiomaterial
p57
aVdesign
p58
aV(control
p59
aVlymphoblastic
p60
aVcarcinoma cells
p61
aVhuman fiboblasts
p62
aVbody site
p63
aVdiseasestate
p64
aVsingle cell
p65
aVovarian
p66
aVcell
p67
aVmcf 7
p68
aVexperiment
p69
aVmethod
p70
aVbody
p71
aVmixed sample
p72
aVtype of
p73
aVcolorectal cancer
p74
aVtissue type
p75
aVhours
p76
aVrepositories http
p77
aVhepatocellular carcinoma
p78
aVhistological type
p79
aVstem
p80
aVinhibitor
p81
aVprecursor
p82
aVstudy
p83
aVcells,
p84
aVfiboblasts
p85
aV36
p86
aV34
p87
aVcoriell
p88
aVtransfected
p89
aVlung adenocarcinoma
p90
aVsolid tumor
p91
aVegfp
p92
aVleukemia cells
p93
aVips
p94
aVmutant
p95
aVwild type
p96
aVmotor
p97
aVmarker
p98
aVislet
p99
aVtotal
p100
aVdna
p101
aVarrayexpress species
p102
aVpositive
p103
aVsalmonella typhimurium
p104
aVnegative
p105
aVumbilical
p106
aVlive
p107
aVvaccine
p108
aVvehicle
p109
aVprefrontal
p110
aVercc
p111
aVtype
p112
aVhek293 cell
p113
aVsgbs
p114
aVsample id
p115
aVmonocytes
p116
aVspecimen with
p117
aVdevelopmental stage
p118
aVinfection
p119
aVis affected
p120
aVflag
p121
aVdonor id
p122
aVadult
p123
aVknown
p124
aVcaco
p125
aVhour
p126
aVmb
p127
aVislets
p128
aVflp
p129
aVmodified
p130
aVdev
p131
aVtnf
p132
aVused for
p133
aVmale
p134
aVscramble
p135
aVwith known
p136
aVcontrol
p137
aVheart
p138
aVgap parent
p139
aV01a
p140
aV0.1
p141
aVchip
p142
aVagent
p143
aVsample
p144
aVpatient id
p145
aVcaco 2
p146
aV231
p147
aVtreatment (
p148
aVendometrial
p149
aVanalysis of
p150
aVs3
p151
aVsubmitter handle
p152
aVserum
p153
aVngs)
p154
aVanimal
p155
aVgap subject
p156
aVcarcinoma cell
p157
aVmesenchymal
p158
aVdescription
p159
aVclone
p160
aVin vitro
p161
aVvariant
p162
aVarrayexpress growthcondition
p163
aVcollection
p164
aVleukemic
p165
aVblood
p166
aVdate
p167
aVexome
p168
aVmarrow
p169
aVdata
p170
aVshort
p171
aVprogenitor cells
p172
aVdatatype
p173
aVgrown in
p174
aVprefrontal cortex
p175
aVtumor stage
p176
aVsigma
p177
aVpurification
p178
aVlike
p179
aVhomo sapiens
p180
aVgrowth condition
p181
aVsh
p182
aVspecies
p183
aVsample type
p184
aVhematopoietic
p185
aVorigin
p186
aVtagged
p187
aVshrna
p188
aVtyphimurium
p189
aVconsent
p190
aVbj cells
p191
aVyears
p192
aVsperm
p193
aVbrain
p194
aVstably expressing
p195
aVhela
p196
aVdatatype description
p197
aVrnaseq
p198
aV25
p199
aVsupplemented
p200
aVgroup
p201
aV21
p202
aV22
p203
aVpcr
p204
aVds
p205
aVantagonist
p206
aVdmso
p207
aVhistological
p208
aV2013
p209
aVs3 +
p210
aVarrayexpress
p211
aVnon
p212
aVneoplasms
p213
aVaffected
p214
aVs3 (
p215
aV+ salmonella
p216
aVfrontal
p217
aVmaterial
p218
aVmatched normal
p219
aVvitro
p220
aVsl1344)
p221
aVcompound
p222
aVsorted
p223
aVday
p224
aVbank
p225
aVmatched
p226
aVlineage
p227
aVipsc derived
p228
aVbone marrow
p229
aVuniversity
p230
aVhif t
p231
aVpluripotent stem
p232
aVmb 231
p233
aVantibody manufacturer
p234
aVhek293
p235
aVmrna
p236
aVskeletal
p237
aVidentifier
p238
aVcord blood
p239
aVb cell
p240
aVcancer cells
p241
aVproliferating
p242
aVgfp
p243
aVmda
p244
aVembryonic kidney
p245
aV24h
p246
aVt cell
p247
aVapplicable
p248
aVyear
p249
aVday 3
p250
aVmds
p251
aVkaryotype
p252
aVes
p253
aVer
p254
aV(day
p255
aVviability
p256
aVresearch
p257
aVhealth
p258
aVinduced
p259
aVinduction
p260
aVcaucasian
p261
aVesophageal
p262
aVcontrol shrna
p263
aVderived
p264
aVknock down
p265
aVleukemia
p266
aVlab
p267
aVairway
p268
aVdata type
p269
aVmononuclear
p270
aVe2
p271
aVperipheral blood
p272
aVpancreatic
p273
aVarchive method
p274
aVhuvec
p275
aVxenograft
p276
aVsample name
p277
aV+)
p278
aVdays
p279
aVcell culture
p280
aVorganismpart
p281
aVlength
p282
aVinsert size
p283
aVpbmcs
p284
aVgrade
p285
aVnumber
p286
aV01a 01r
p287
aVphs
p288
aVset
p289
aVinduced pluripotent
p290
aVnon targeting
p291
aVmyelogenous
p292
aVarrayexpress phenotype
p293
aVmammary
p294
aVstage
p295
aVsize
p296
aVcell marker
p297
aVseq
p298
aVprostate
p299
aVbreed
p300
aVconstruct
p301
aVstimulation
p302
aVembryonic stem
p303
aVdev stage
p304
aVinfected
p305
aVnsclc
p306
aVmolecular
p307
aVperipheral
p308
aVlow
p309
aVbiospecimen repository
p310
aVstem cell
p311
aVhela cell
p312
aVbasal
p313
aVnci
p314
aVgap accession
p315
aVpopulation
p316
aVepidermal
p317
aV10
p318
aVderived neural
p319
aV12
p320
aVparental cell
p321
aVtarget
p322
aV17
p323
aV16
p324
aV19
p325
aV18
p326
aVsubmitted
p327
aVhuman embryonic
p328
aVmatter
p329
aVdetermined
p330
aVplasmid
p331
aVsubmitter
p332
aVtime point
p333
aVtreated
p334
aVfresh specimen
p335
aVpre
p336
aVfalse
p337
aVstudy name
p338
aVculture collection
p339
aVt cells
p340
aVlentivirus
p341
aVglioblastoma
p342
aVmedium
p343
aVdepleted
p344
aV#2
p345
aVds ca
p346
aVsample description
p347
aVhescs
p348
aVcase set
p349
aVoverexpressing
p350
aVcontrol sirna
p351
aVgeneric
p352
aVmin
p353
aVtet
p354
aVlin
p355
aVisolate
p356
aVumbilical vein
p357
aVmix
p358
aVsequencing analysis
p359
aVdonor
p360
aVnci target
p361
aVmir
p362
aVno treatment
p363
aV200
p364
aVdermal
p365
aVmultiple
p366
aVspike in
p367
aVoverexpression
p368
aVbiomaterial provider
p369
aVskeletal muscle
p370
aVipsc
p371
aVvirus
p372
aVcell cycle
p373
aVbiosamplemodel
p374
aValpha
p375
aVdmem
p376
aVambion
p377
aVpolya
p378
aV3 days
p379
aVrenal
p380
aVlines
p381
aVaverage
p382
aVdisease
p383
aVleukemia (
p384
aVepithelium
p385
aVdox
p386
aVis tumor
p387
aVjurkat
p388
aVfacs
p389
aVleft
p390
aVpost treatment
p391
aVcell repositories
p392
aVselection
p393
aVaccession
p394
aVimr90
p395
aVtissue source
p396
aVchronic myelogenous
p397
aVpassages
p398
aVarrayexpress dose
p399
aVmononuclear cells
p400
aVbased
p401
aVhrs
p402
aVba9
p403
aVflp in
p404
aVline hela
p405
aVngs
p406
aVdepletion
p407
aV11
p408
aVcortex
p409
aVhesc
p410
aVhandle
p411
aVcortex (
p412
aVbiopsy
p413
aVfluid
p414
aVtissue archive
p415
aVtransduced
p416
aVbreast
p417
aVhif
p418
aVhuman cell
p419
aVgap sample
p420
aV15
p421
aVcd34+ cells
p422
aVnot applicable
p423
aVuntreated
p424
aVhuman breast
p425
aVinfected with
p426
aVmrna seq
p427
aVorgan
p428
aVtumors
p429
aVgbm
p430
aVsubtype
p431
aVdisease status
p432
aVcontrol)
p433
aVtransfected with
p434
aVips cells
p435
aVpluripotent
p436
aVmarrow,
p437
aVembryonic
p438
aVcrl
p439
aVbarr
p440
aVday 0
p441
aVbreast tumor
p442
aVreference
p443
aV293t
p444
aVcell carcinoma
p445
aV293s
p446
aVsex
p447
aVculture
p448
aVebv
p449
aVcytoplasmic
p450
aVmonocyte derived
p451
aV2.2
p452
aVsurgery
p453
aVendothelial cells
p454
aVpurified
p455
aVsubject
p456
aVseq (
p457
aV(a
p458
aVwa
p459
aVculture medium
p460
aVmolecular data
p461
aVnuclear
p462
aVmissing
p463
aVconsent code
p464
aVlabel
p465
aVstate
p466
aVgenotype
p467
aV1 hour
p468
aVcancer tissue
p469
aV, and
p470
aVinfection model
p471
aVconditions
p472
aVcontrol (
p473
aVtreated with
p474
aV24
p475
aVrepository sample
p476
aVcd34+
p477
aVparent
p478
aVparental
p479
aVneonatal
p480
aVlesional
p481
aVwt
p482
aVbrain tissue
p483
aV20
p484
aVcervical
p485
aVlymphoblastoid cell
p486
aVresistant
p487
aVregion
p488
aV02
p489
aVdrug
p490
aVsource name
p491
aVexpression
p492
aVcell type
p493
aVcomment
p494
aVtyphimurium sl1344
p495
aVanti
p496
aVcancer
p497
aVpoint
p498
aVculture infection
p499
aVca
p500
aV. matched
p501
aVperiod
p502
aVpoly
p503
aVneural progenitor
p504
aVdoxycycline
p505
aVarrayexpress compound
p506
aVtwin
p507
aVrpe
p508
aV),
p509
aVhuman colon
p510
aV69
p511
aVa549
p512
aV, control
p513
aVtargeting
p514
aVpar clip
p515
aVreplicate
p516
aVprogenitor
p517
aVderived macrophages
p518
aVlung fibroblasts
p519
aVlocation
p520
aVmcf
p521
aVbmi
p522
aVgap
p523
aVfibroblast
p524
aVliver
p525
aVepithelial cell
p526
aVsmoking
p527
aVdifferentiation stage
p528
aVa control
p529
aVcase
p530
aVnot determined
p531
aVhepatocellular
p532
aVsolid
p533
aVmda mb
p534
aVmedium (
p535
aVadipocyte
p536
aVinstitute
p537
aVwhole exome
p538
aVcelltype
p539
aVstem cells
p540
aVwild
p541
aVstorage state
p542
aVsample group
p543
aVsirna
p544
aV31
p545
aVepithelial
p546
aVendothelial
p547
aV30
p548
aVpool
p549
aVneuron
p550
aVsite
p551
aViv
p552
aVrin
p553
aVstrain
p554
aVreads
p555
aVneurons
p556
aVanalyte
p557
aVclip
p558
aVhek293t
p559
aVprotein
p560
aVid
p561
aVethnicity
p562
aVhuman brain
p563
aVgrown
p564
aVcontaining
p565
aVhuman cervical
p566
aVmedia
p567
aVribosome
p568
aVarchive
p569
aVpoly(
p570
aVphenotype
p571
aVcolorectal
p572
aV72h
p573
aVhela s3
p574
aVsapiens
p575
aVarrayexpress organismpart
p576
aVused
p577
aVhttp
p578
aVstudy design
p579
aVtimepoint
p580
aVkit
p581
aVgrowth protocol
p582
aVrex
p583
aVt rex
p584
aVsubmitted subject
p585
aVcycle
p586
aVfrozen
p587
aVprimary fibroblasts
p588
aVbrain reference
p589
aVcenter
p590
aVorganism part
p591
aVneural
p592
aVcells (
p593
aVmyeloma
p594
aVanalysis
p595
aVthp
p596
aVccl
p597
aVsquamous
p598
aVhapmap
p599
aVmodel
p600
aVmuscle
p601
aV33
p602
aVfetal
p603
aVsequenced
p604
aVprotocol
p605
aVimmortalized
p606
aVimr90 human
p607
aVdose
p608
aV(ngs
p609
aVc4
p610
aVlymphoblastoid
p611
aVhuman
p612
aVgrowthcondition
p613
aVdifferentiation
p614
aVyes
p615
aVbiospecimen
p616
aVspecimen
p617
aVwith a
p618
aVthyroid
p619
aVcervix
p620
aVdeath
p621
aVpolya rna
p622
aVcervical cancer
p623
aVsource
p624
aVdevelopment stage
p625
aVtreatment
p626
aVsamples
p627
aVphs000218
p628
aVgenotype variation
p629
aV15 20
p630
aVsupplemented with
p631
aVcollected
p632
aVknock
p633
aVrna
p634
aVearly
p635
aV(+
p636
aVatcc
p637
aVpbmc
p638
aVsequencing
p639
aVlcl
p640
aVcase control
p641
aVn a
p642
aVago2
p643
aVculture condition
p644
aVinsert
p645
aVinducible
p646
aVuniversity of
p647
aVhealth state
p648
aV54
p649
aVmcf7
p650
aVgenomic
p651
aV52
p652
aVfibroblasts
p653
aVpancreatic islet
p654
aVneuronal
p655
aVcolon
p656
aVreference rna
p657
aVmctp
p658
aVhealthy
p659
aVmcf 10a
p660
aVsequence
p661
aVlabexpid
p662
aVrepositories
p663
aV).
p664
aVlibrary
p665
aV50
p666
aVhomo
p667
aVdevelopment
p668
aVsl1344
p669
aVcells were
p670
aVatcc ccl
p671
aVprimary
p672
aVb cells
p673
aVnormal
p674
aVccl 2.2
p675
aVcd4+ t
p676
aVparent phs
p677
aVesc
p678
aVmutation
p679
aVexpressing
p680
aVprovider
p681
aVgap consent
p682
aVarrayexpress celltype
p683
aVcord
p684
aVprimary solid
p685
aVpatient
p686
aVrepository
p687
aVmacrophages
p688
aVk562
p689
aVmolecule
p690
aVanalyte type
p691
aVbarcode
p692
aVbj
p693
aVdays after
p694
aVmolecule subtype
p695
aVmetastatic
p696
aVhuman primary
p697
aVpost
p698
aVcell subtype
p699
aVmanufacturer
p700
aVforeskin
p701
aVercc mix
p702
aVsample comment
p703
aVneural crest
p704
aVadipose
p705
aVbeta
p706
aVtumor
p707
aVmyeloid
p708
aVbone
p709
aVtet on
p710
aVmixed
p711
aVcarcinoma
p712
aVantibody
p713
aVvs.
p714
aVh9
p715
aV293t cells
p716
aVtransduced with
p717
aVh1
p718
aV) cells
p719
aVchronic
p720
aVacute myeloid
p721
aVlung
p722
aVfemale
p723
aVfactor
p724
aVbatch
p725
aVrna seq
p726
aVhes
p727
aVwith 10
p728
aVcultured
p729
aV% fetal
p730
aVbreast neoplasms
p731
aVclinical
p732
aVadenocarcinoma
p733
aVcell,
p734
aVfraction
p735
aVgene
p736
aVbreast cancer
p737
aVhek
p738
aVcell line
p739
aVtotal rna
p740
aVhr
p741
aVm2
p742
aVgastric
p743
aVcoriell cell
p744
aVacute
p745
aVknockdown
p746
aVunstimulated
p747
aVpancreatic islets
p748
aVline
p749
aVcancer cell
p750
aVcount
p751
aVcells
p752
aVpar
p753
aVum
p754
aVgrowth
p755
aVrnai
p756
aVchip antibody
p757
aVcell derived
p758
aV(human
p759
aVuc
p760
aVsubmitted sample
p761
aVline (
p762
aVpsoriasis
p763
aVprostate cancer
p764
aVconsent short
p765
aVsample (
p766
aV48h
p767
aVmetastasis
p768
aVblood mononuclear
p769
aVgland
p770
aVsingle
p771
aV1 cells
p772
aVcd4+
p773
aVerythroid
p774
aVthp 1
p775
aVtargeting sirna
p776
aVtumor vs
p777
aVkidney
p778
aVffpe
p779
aVgru
p780
aVmelanoma
p781
aVh1 embryonic
p782
aV46
p783
aVna
p784
aVbreast adenocarcinoma
p785
aVstorage
p786
aV40
p787
aVmyeloid leukemia
p788
aVhct116
p789
aVhela cells
p790
aVlncap
p791
aVgenome
p792
aVwa09
p793
aVnt
p794
aVmock
p795
aVnhgri
p796
aVtransfection
p797
aVkidney cells
p798
aV's
p799
aVdevelopmental
p800
aVa)
p801
aVsubject is
p802
aVmonocyte
p803
aVhek 293
p804
aVvariation
p805
aVlabversion
p806
aVcell clone
p807
aVcolon cancer
p808
aVsubject id
p809
aVvein
p810
aVmacrophage
p811
aVlymphoma
p812
aVclip antibody
p813
aVindividual
p814
aVarrayexpress timepoint
p815
aVorganism
p816
aVage
p817
aVmesenchymal stem
p818
aVfibroblast cell
p819
aVstatus
p820
aVdiagnosis
p821
aVtime
p822
aVfresh
p823
aVovary
p824
aVlung cancer
p825
aVoriginal
p826
asS'term_vec_scaffold'
p827
(lp828
S'DOID:1115'
p829
aS'UBERON:0019319'
p830
aVCL:0002322
p831
aVCL:0000738
p832
aS'CL:0000255'
p833
aVEFO:0000574
p834
aS'EFO:0002694'
p835
aVEFO:0000571
p836
aS'EFO:0003820'
p837
aS'UBERON:0000033'
p838
aS'UBERON:0018254'
p839
aVUBERON:0001968
p840
aS'UBERON:0015212'
p841
aVEFO:0000973
p842
aS'UBERON:0004151'
p843
aVCL:0000057
p844
aS'CL:0000055'
p845
aS'UBERON:0001986'
p846
aS'UBERON:0001981'
p847
aVCL:2000001
p848
aVUBERON:0012168
p849
aS'UBERON:0013701'
p850
aS'UBERON:0013702'
p851
aVEFO:0004318
p852
aVEFO:0000272
p853
aS'EFO:0000512'
p854
aS'EFO:0003853'
p855
aS'UBERON:0000105'
p856
aVUBERON:0000358
p857
aS'UBERON:0006331'
p858
aS'EFO:0000222'
p859
aS'UBERON:0035943'
p860
aS'DOID:1287'
p861
aVUBERON:0001911
p862
aS'EFO:0005774'
p863
aS'DOID:201'
p864
aS'UBERON:0022303'
p865
aS'EFO:0005771'
p866
aVEFO:0005772
p867
aVEFO:0005292
p868
aS'UBERON:0011676'
p869
aS'UBERON:0004756'
p870
aVEFO:0001071
p871
aVCL:0002371
p872
aS'UBERON:0004755'
p873
aS'UBERON:0000062'
p874
aS'UBERON:0000463'
p875
aS'UBERON:0003129'
p876
aS'UBERON:0034925'
p877
aS'UBERON:0034922'
p878
aVUBERON:0002020
p879
aS'UBERON:0034929'
p880
aS'DOID:47'
p881
aS'DOID:3905'
p882
aS'DOID:3908'
p883
aS'DOID:48'
p884
aVCL:0000115
p885
aVUBERON:0014895
p886
aS'EFO:0003777'
p887
aS'EFO:0000618'
p888
aVUBERON:0014892
p889
aS'EFO:0000616'
p890
aS'EFO:0001355'
p891
aS'UBERON:0002616'
p892
aS'UBERON:0001004'
p893
aS'UBERON:0001005'
p894
aVEFO:0000756
p895
aS'UBERON:0012275'
p896
aS'UBERON:0015410'
p897
aS'DOID:28'
p898
aS'UBERON:0001008'
p899
aS'UBERON:0005399'
p900
aS'UBERON:0005156'
p901
aVCVCL:0062
p902
aVEFO:0001185
p903
aVEFO:0001184
p904
aS'UBERON:0005401'
p905
aS'UBERON:0000922'
p906
aS'UBERON:0000923'
p907
aS'UBERON:0005409'
p908
aS'UBERON:0010313'
p909
aVUBERON:0002113
p910
aS'UBERON:0010314'
p911
aS'EFO:1000068'
p912
aS'UBERON:0010428'
p913
aS'UBERON:0011822'
p914
aS'UBERON:0011821'
p915
aS'UBERON:0001443'
p916
aS'UBERON:0001560'
p917
aS'DOID:3571'
p918
aS'DOID:1492'
p919
aVEFO:0002869
p920
aS'DOID:16'
p921
aVEFO:0000589
p922
aS'DOID:17'
p923
aS'DOID:1579'
p924
aS'UBERON:0015808'
p925
aS'EFO:0002427'
p926
aS'UBERON:0013765'
p927
aS'EFO:0000408'
p928
aVEFO:0002422
p929
aS'EFO:0000405'
p930
aS'DOID:0070004'
p931
aS'UBERON:0001893'
p932
aVUBERON:0001891
p933
aS'UBERON:0001890'
p934
aS'UBERON:0000068'
p935
aS'UBERON:0000104'
p936
aS'UBERON:0002204'
p937
aS'UBERON:0000065'
p938
aS'UBERON:0000064'
p939
aS'UBERON:0000067'
p940
aS'UBERON:0000061'
p941
aS'UBERON:0000060'
p942
aS'UBERON:0000063'
p943
aVEFO:0003818
p944
aS'DOID:14566'
p945
aS'DOID:0050687'
p946
aS'DOID:0050686'
p947
aS'UBERON:0002384'
p948
aS'UBERON:0002385'
p949
aS'UBERON:0004120'
p950
aS'UBERON:0004121'
p951
aS'DOID:15'
p952
aS'UBERON:0001870'
p953
aVCL:0000084
p954
aVUBERON:0000992
p955
aVCL:0000081
p956
aS'CL:0000080'
p957
aS'DOID:2621'
p958
aS'CL:0008001'
p959
aS'UBERON:0013754'
p960
aS'UBERON:0007625'
p961
aVEFO:0000322
p962
aS'EFO:0000324'
p963
aVDOID:2394
p964
aVUBERON:0002371
p965
aVEFO:0007330
p966
aS'CL:0000151'
p967
aS'DOID:0050615'
p968
aVDOID:3910
p969
aS'CL:0000015'
p970
aVCL:0000010
p971
aVEFO:0003534
p972
aS'DOID:850'
p973
aS'UBERON:0000203'
p974
aVCVCL:9773
p975
aVCL:0000236
p976
aS'CL:0000234'
p977
aS'UBERON:0000479'
p978
aS'UBERON:0005057'
p979
aVCL:0000723
p980
aS'UBERON:0000471'
p981
aS'UBERON:0000477'
p982
aS'UBERON:0000474'
p983
aS'UBERON:0000475'
p984
aS'UBERON:0013522'
p985
aS'UBERON:0013529'
p986
aVUBERON:0001134
p987
aVUBERON:0007023
p988
aS'UBERON:0001017'
p989
aVCVCL:GS28
p990
aS'UBERON:0000989'
p991
aS'DOID:2531'
p992
aS'CL:0000839'
p993
aS'DOID:0060083'
p994
aS'EFO:0000326'
p995
aS'EFO:0000786'
p996
aS'EFO:0000787'
p997
aVEFO:0001247
p998
aVDOID:1909
p999
aS'UBERON:0000487'
p1000
aS'UBERON:0004537'
p1001
aS'UBERON:0004535'
p1002
aVCVCL:0030
p1003
aVCL:0000988
p1004
aS'UBERON:0008811'
p1005
aVDOID:1612
p1006
aS'UBERON:0005181'
p1007
aVUBERON:0002120
p1008
aS'EFO:0002461'
p1009
aS'UBERON:0009661'
p1010
aS'UBERON:0003528'
p1011
aVCL:0000019
p1012
aVCL:1001608
p1013
aS'UBERON:0007842'
p1014
aS'DOID:7'
p1015
aS'CL:0011115'
p1016
aVEFO:0000565
p1017
aS'UBERON:0001558'
p1018
aS'UBERON:0011215'
p1019
aS'UBERON:0011216'
p1020
aS'UBERON:0000025'
p1021
aS'UBERON:0000026'
p1022
aVUBERON:0000029
p1023
aS'UBERON:0000383'
p1024
aS'UBERON:0008784'
p1025
aS'UBERON:0016548'
p1026
aVEFO:0000962
p1027
aVUBERON:0001015
p1028
aVCL:0000047
p1029
aS'UBERON:0001087'
p1030
aS'CL:0000048'
p1031
aS'UBERON:0009569'
p1032
aS'UBERON:0002050'
p1033
aS'CL:0002087'
p1034
aS'EFO:0002009'
p1035
aVEFO:0000365
p1036
aVDOID:3347
p1037
aS'UBERON:0002330'
p1038
aS'DOID:409'
p1039
aS'UBERON:0000154'
p1040
aS'UBERON:0000153'
p1041
aVEFO:0005741
p1042
aS'DOID:5672'
p1043
aS'DOID:219'
p1044
aS'UBERON:0004765'
p1045
aS'CL:0000763'
p1046
aVCL:0000764
p1047
aVCL:0000766
p1048
aS'UBERON:0006914'
p1049
aVEFO:0001061
p1050
aS'UBERON:0002199'
p1051
aS'UBERON:0002193'
p1052
aS'DOID:0060100'
p1053
aVDOID:1520
p1054
aS'UBERON:0003113'
p1055
aS'UBERON:0010000'
p1056
aS'UBERON:0000079'
p1057
aS'UBERON:0002423'
p1058
aS'UBERON:0011143'
p1059
aS'UBERON:0002346'
p1060
aVCL:0000235
p1061
aS'UBERON:0002342'
p1062
aVEFO:0004905
p1063
aVEFO:0004900
p1064
aS'CL:0000163'
p1065
aVEFO:0000621
p1066
aS'EFO:0003869'
p1067
aS'DOID:0060084'
p1068
aVDOID:8864
p1069
aS'UBERON:0001781'
p1070
aVUBERON:0001013
p1071
aS'DOID:863'
p1072
aVEFO:0001200
p1073
aS'UBERON:0001016'
p1074
aS'CL:0000300'
p1075
aVEFO:0001203
p1076
aS'UBERON:0005388'
p1077
aVEFO:0001209
p1078
aS'UBERON:0010912'
p1079
aVEFO:0001196
p1080
aS'DOID:0060072'
p1081
aVDOID:10283
p1082
aS'UBERON:0002049'
p1083
aVUBERON:0002048
p1084
aVEFO:0003060
p1085
aS'EFO:0004288'
p1086
aS'UBERON:0001456'
p1087
aS'UBERON:0010538'
p1088
aS'EFO:0000524'
p1089
aVEFO:0003893
p1090
aS'EFO:0003890'
p1091
aS'UBERON:0001264'
p1092
aS'DOID:3463'
p1093
aS'CL:0000413'
p1094
aS'CL:0000945'
p1095
aS'UBERON:0001062'
p1096
aS'UBERON:0003937'
p1097
aVCVCL:A784
p1098
aVCVCL:0006
p1099
aS'UBERON:0000490'
p1100
aS'UBERON:0002514'
p1101
aVCVCL:0553
p1102
aS'UBERON:0010230'
p1103
aS'UBERON:0000948'
p1104
aS'UBERON:0000949'
p1105
aS'UBERON:0004288'
p1106
aVEFO:0005842
p1107
aS'DOID:0050161'
p1108
aS'UBERON:0007811'
p1109
aS'UBERON:0000059'
p1110
aS'UBERON:0001943'
p1111
aS'UBERON:0000055'
p1112
aS'EFO:0002886'
p1113
aS'EFO:0002885'
p1114
aS'EFO:0002884'
p1115
aS'EFO:0002890'
p1116
aS'UBERON:0019207'
p1117
aS'EFO:0002888'
p1118
aS'UBERON:0002390'
p1119
aVCL:0000134
p1120
aS'CL:0000527'
p1121
aS'DOID:65'
p1122
aVEFO:0004187
p1123
aVUBERON:0001630
p1124
aS'UBERON:0002097'
p1125
aS'DOID:10155'
p1126
aS'EFO:0004260'
p1127
aS'UBERON:0002308'
p1128
aVCVCL:T987
p1129
aS'EFO:0000319'
p1130
aS'UBERON:0002465'
p1131
aVUBERON:0007220
p1132
aVUBERON:0003101
p1133
aS'EFO:0000311'
p1134
aVEFO:0000313
p1135
aS'UBERON:0006314'
p1136
aS'UBERON:0015757'
p1137
aS'UBERON:0001950'
p1138
aS'CL:0000003'
p1139
aS'EFO:0000707'
p1140
aVDOID:8893
p1141
aVDOID:0050861
p1142
aS'EFO:0000701'
p1143
aS'UBERON:0002529'
p1144
aVUBERON:0002481
p1145
aS'EFO:0001799'
p1146
aVEFO:0001099
p1147
aS'UBERON:0000468'
p1148
aS'DOID:170'
p1149
aS'CL:0000226'
p1150
aS'DOID:0060118'
p1151
aS'UBERON:0006925'
p1152
aS'CL:0002319'
p1153
aS'UBERON:0000465'
p1154
aS'UBERON:0000464'
p1155
aS'UBERON:0000467'
p1156
aS'UBERON:0000466'
p1157
aS'UBERON:0010758'
p1158
aS'DOID:4960'
p1159
aS'DOID:4961'
p1160
aS'UBERON:0002416'
p1161
aS'UBERON:0002417'
p1162
aS'DOID:8527'
p1163
aS'UBERON:0000991'
p1164
aS'UBERON:0000990'
p1165
aS'UBERON:0000993'
p1166
aS'DOID:3856'
p1167
aS'UBERON:0000995'
p1168
aVEFO:0000676
p1169
aS'EFO:0000677'
p1170
aS'UBERON:0001444'
p1171
aS'DOID:4362'
p1172
aVEFO:0001372
p1173
aS'UBERON:0000307'
p1174
aS'EFO:0002937'
p1175
aS'EFO:0002934'
p1176
aVEFO:0001378
p1177
aVEFO:0001379
p1178
aVEFO:0001272
p1179
aVCL:0002553
p1180
aVCVCL:0045
p1181
aS'UBERON:0005423'
p1182
aVCVCL:0042
p1183
aVDOID:684
p1184
aS'DOID:686'
p1185
aS'UBERON:0010371'
p1186
aVEFO:0002824
p1187
aVUBERON:0001782
p1188
aS'DOID:2914'
p1189
aS'UBERON:0003457'
p1190
aS'CL:0000076'
p1191
aVEFO:0002571
p1192
aS'DOID:3459'
p1193
aVDOID:3458
p1194
aS'UBERON:0000019'
p1195
aVEFO:0000510
p1196
aVUBERON:0000014
p1197
aS'UBERON:0000016'
p1198
aS'UBERON:0007914'
p1199
aVEFO:0000519
p1200
aS'DOID:5614'
p1201
aVEFO:0000684
p1202
aVUBERON:0001332
p1203
aS'EFO:0000681'
p1204
aVDOID:299
p1205
aVCVCL:0347
p1206
aS'DOID:1324'
p1207
aS'DOID:193'
p1208
aS'UBERON:0034769'
p1209
aS'UBERON:0002365'
p1210
aVEFO:0002791
p1211
aS'CL:0000473'
p1212
aVEFO:0002796
p1213
aVUBERON:0002367
p1214
aS'CL:0002076'
p1215
aS'EFO:0000200'
p1216
aVEFO:0000298
p1217
aS'CL:0002078'
p1218
aS'UBERON:0004088'
p1219
aS'UBERON:0000160'
p1220
aVUBERON:0035944
p1221
aS'UBERON:0011374'
p1222
aS'DOID:9500'
p1223
aS'UBERON:0001007'
p1224
aVCVCL:0031
p1225
aVCVCL:0419
p1226
aS'CL:0002077'
p1227
aS'DOID:37'
p1228
aVEFO:0001216
p1229
aVCVCL:0063
p1230
aVEFO:0004561
p1231
aS'CL:0000578'
p1232
aS'UBERON:0000970'
p1233
aS'UBERON:0003103'
p1234
aS'UBERON:0003102'
p1235
aS'UBERON:0011159'
p1236
aS'UBERON:0011158'
p1237
aS'UBERON:0034944'
p1238
aS'UBERON:0004709'
p1239
aVEFO:0000221
p1240
aS'UBERON:0001009'
p1241
aS'UBERON:0002298'
p1242
aS'CL:0000174'
p1243
aS'UBERON:0004177'
p1244
aS'UBERON:0004175'
p1245
aS'UBERON:0000344'
p1246
aVEFO:0001187
p1247
aS'DOID:3070'
p1248
aS'UBERON:0004456'
p1249
aS'UBERON:0007095'
p1250
aS'DOID:3069'
p1251
aVEFO:0003086
p1252
aVUBERON:0004852
p1253
aVEFO:0005543
p1254
aS'DOID:120'
p1255
aS'CL:0002320'
p1256
aS'CL:0002321'
p1257
aVDOID:0060058
p1258
aVEFO:0001182
p1259
aS'UBERON:0005172'
p1260
aS'UBERON:0005173'
p1261
aVCVCL:0065
p1262
aS'UBERON:0005177'
p1263
aS'UBERON:0005178'
p1264
aVEFO:0003156
p1265
aS'UBERON:0010707'
p1266
aVEFO:0003152
p1267
aVEFO:0003150
p1268
aS'UBERON:0010709'
p1269
aS'UBERON:0002075'
p1270
aS'CL:0000215'
p1271
aS'CL:0000219'
p1272
aS'CL:0001034'
p1273
aS'EFO:0003331'
p1274
aS'CL:0000408'
p1275
aS'CL:0000404'
p1276
aS'UBERON:0004921'
p1277
aS'UBERON:0004923'
p1278
aS'EFO:0005803'
p1279
aS'UBERON:0009834'
p1280
aS'UBERON:0000955'
p1281
aS'UBERON:0000957'
p1282
aVUBERON:0000956
p1283
aS'UBERON:0000483'
p1284
aS'UBERON:0000481'
p1285
aS'UBERON:0019042'
p1286
aS'UBERON:0010316'
p1287
aS'UBERON:0000489'
p1288
aS'UBERON:0035553'
p1289
aS'UBERON:0019304'
p1290
aS'DOID:5093'
p1291
aS'UBERON:0019264'
p1292
aS'CL:0002031'
p1293
aS'UBERON:0001434'
p1294
aS'EFO:0000540'
p1295
aS'UBERON:0000125'
p1296
aS'EFO:0003833'
p1297
aS'EFO:0000399'
p1298
aS'UBERON:0007100'
p1299
aS'UBERON:0000047'
p1300
aVDOID:4
p1301
aVUBERON:0001977
p1302
aVEFO:0001421
p1303
aS'DOID:3093'
p1304
aVEFO:0000182
p1305
aS'UBERON:0016526'
p1306
aS'UBERON:0016525'
p1307
aS'UBERON:0001555'
p1308
aVDOID:305
p1309
aS'EFO:0002891'
p1310
aS'DOID:0050155'
p1311
aS'UBERON:0015228'
p1312
aS'UBERON:0016529'
p1313
aS'UBERON:0011823'
p1314
aVCL:0000100
p1315
aS'CL:0002620'
p1316
aS'DOID:74'
p1317
aS'DOID:77'
p1318
aS'DOID:1192'
p1319
aVUBERON:0002082
p1320
aVUBERON:0002084
p1321
aS'CL:0002242'
p1322
aVCVCL:S103
p1323
aVEFO:0000304
p1324
aVEFO:0000305
p1325
aS'DOID:9256'
p1326
aS'UBERON:0004708'
p1327
aVEFO:0007355
p1328
aS'DOID:1289'
p1329
aVCL:0000034
p1330
aS'CL:0000586'
p1331
aVUBERON:0001295
p1332
aS'CL:0000039'
p1333
aS'EFO:0003040'
p1334
aVUBERON:0002530
p1335
aVEFO:0003045
p1336
aS'UBERON:0000020'
p1337
aS'CL:0000211'
p1338
aS'CL:0000213'
p1339
aS'EFO:0001640'
p1340
aS'EFO:0001641'
p1341
aS'EFO:0001642'
p1342
aS'EFO:0001643'
p1343
aVCL:0002248
p1344
aS'UBERON:0000456'
p1345
aVUBERON:0000451
p1346
aS'DOID:162'
p1347
aVEFO:0001086
p1348
aVUBERON:0013540
p1349
aVCVCL:0598
p1350
aVEFO:0001082
p1351
aS'UBERON:0000459'
p1352
aVCL:0002368
p1353
aVUBERON:0001155
p1354
aS'UBERON:0003133'
p1355
aS'UBERON:0002036'
p1356
aS'UBERON:0003134'
p1357
aS'UBERON:0003135'
p1358
aVUBERON:0002405
p1359
aVDOID:769
p1360
aVEFO:0004198
p1361
aVEFO:0003769
p1362
aVEFO:0003768
p1363
aVCL:0000576
p1364
aVUBERON:0000310
p1365
aS'EFO:0005218'
p1366
aS'UBERON:0003297'
p1367
aS'EFO:0002926'
p1368
aS'UBERON:0001032'
p1369
aS'EFO:0005217'
p1370
aS'EFO:0005216'
p1371
aS'EFO:0002922'
p1372
aVCVCL:0058
p1373
aS'UBERON:0000915'
p1374
aS'UBERON:0000916'
p1375
aS'UBERON:0010364'
p1376
aS'EFO:0005950'
p1377
aS'UBERON:0002100'
p1378
aS'UBERON:0002101'
p1379
aS'UBERON:0002103'
p1380
aS'UBERON:0002104'
p1381
aVCVCL:0291
p1382
aVUBERON:0002107
p1383
aS'UBERON:0004907'
p1384
aVUBERON:0001474
p1385
aVUBERON:0003100
p1386
aS'DOID:3118'
p1387
aS'DOID:3119'
p1388
aVUBERON:0000002
p1389
aS'UBERON:0000000'
p1390
aVEFO:0000508
p1391
aVUBERON:0000006
p1392
aS'UBERON:0012429'
p1393
aS'EFO:0004105'
p1394
aS'EFO:0000691'
p1395
aVCL:0000842
p1396
aS'UBERON:0008907'
p1397
aS'UBERON:0005090'
p1398
aS'DOID:184'
p1399
aVEFO:0006858
p1400
aS'DOID:1240'
p1401
aS'EFO:0005738'
p1402
aVEFO:0001253
p1403
aVEFO:0000430
p1404
aVEFO:0003942
p1405
aS'EFO:0003863'
p1406
aVUBERON:0000175
p1407
aS'UBERON:0000171'
p1408
aVEFO:0003865
p1409
aS'UBERON:0000077'
p1410
aS'UBERON:0011300'
p1411
aS'UBERON:0000075'
p1412
aS'UBERON:0000072'
p1413
aS'UBERON:0000073'
p1414
aS'UBERON:0000179'
p1415
aVUBERON:0000071
p1416
aS'DOID:331'
p1417
aVUBERON:0000178
p1418
aS'UBERON:0004119'
p1419
aVEFO:0000228
p1420
aS'UBERON:0001869'
p1421
aS'DOID:8692'
p1422
aS'UBERON:0004111'
p1423
aS'UBERON:0000170'
p1424
aVCL:0000540
p1425
aVCL:0000542
p1426
aS'CL:0000548'
p1427
aS'UBERON:0010147'
p1428
aVEFO:0000763
p1429
aS'UBERON:0001802'
p1430
aS'UBERON:0007794'
p1431
aS'CL:0000147'
p1432
aS'UBERON:0002368'
p1433
aS'UBERON:0007798'
p1434
aVCL:0000066
p1435
aS'CL:0000064'
p1436
aVEFO:0000637
p1437
aVEFO:0000726
p1438
aVEFO:0000727
p1439
aVDOID:3068
p1440
aS'CL:0000325'
p1441
aS'EFO:0000635'
p1442
aS'EFO:0001639'
p1443
aS'UBERON:0005162'
p1444
aS'UBERON:0013515'
p1445
aS'UBERON:0010323'
p1446
aS'EFO:1001513'
p1447
aS'EFO:0005215'
p1448
aS'EFO:1000636'
p1449
aS'UBERON:0011137'
p1450
aS'CL:0000393'
p1451
aS'EFO:0000096'
p1452
aS'UBERON:0000323'
p1453
aS'UBERON:0005291'
p1454
aVEFO:0000795
p1455
aS'EFO:0002958'
p1456
aS'CL:0000000'
p1457
aVCVCL:0027
p1458
aVCVCL:0025
p1459
aVCVCL:0023
p1460
aS'UBERON:0000966'
p1461
asb.